Certificate:
    Data:
        Version: 3 (0x2)
        Serial Number: 4131 (0x1023)
        Signature Algorithm: sha256WithRSAEncryption
        Issuer: C=DE, ST=NRW, L=Langenfeld, O=unixuser.de, OU=it, CN=unixuser.intern-sub-CA/emailAddress=taumeister@gmail.com
        Validity
            Not Before: Dec 13 13:02:00 2025 GMT
            Not After : Dec 13 13:02:00 2027 GMT
        Subject: C=DE, ST=NRW, O=Unixuser, OU=IT, CN=index-suche.unixuser.intern
        Subject Public Key Info:
            Public Key Algorithm: rsaEncryption
                Public-Key: (2048 bit)
                Modulus:
                    00:97:38:42:38:f4:cc:86:de:12:b2:71:74:ff:b4:
                    7f:ae:c8:f5:55:1b:07:e8:99:98:69:a9:4e:be:08:
                    88:dd:64:6f:b2:d0:8d:1e:33:1b:f7:48:98:83:7b:
                    65:af:61:9d:40:21:b2:cd:03:9f:ed:0a:99:d5:0f:
                    80:67:92:c1:52:ea:5d:0d:f6:57:cb:36:7a:a2:20:
                    b5:bc:8d:05:da:72:ba:3e:b5:91:71:74:79:6d:e7:
                    5b:ad:89:28:41:08:6c:1d:b7:78:7f:db:b9:56:7d:
                    90:75:2a:82:f0:20:27:b2:f9:46:50:ba:6a:5e:e7:
                    82:f8:7f:5a:cf:33:4a:65:eb:d9:62:e4:90:9c:3a:
                    bb:cf:2b:88:8a:33:dd:8a:05:d9:fb:e7:de:8e:bc:
                    48:ba:14:de:6d:61:64:fe:b3:3b:bd:ef:a0:21:40:
                    ed:9b:2e:90:16:a5:c2:a4:03:81:9d:ff:1a:be:50:
                    30:32:58:66:20:8c:40:5e:f2:4c:0f:ae:31:88:fd:
                    0d:83:c9:13:b5:88:c3:03:e3:b0:3a:a7:73:af:5b:
                    df:d1:bd:4c:31:c1:cd:e4:99:70:9d:db:c8:fb:85:
                    ab:6d:c1:87:53:eb:70:90:8e:8e:df:a3:16:f2:9a:
                    7b:66:09:c8:22:e2:8f:e8:52:c9:35:3b:9d:22:39:
                    8f:b3
                Exponent: 65537 (0x10001)
        X509v3 extensions:
            X509v3 Subject Key Identifier: 
                99:81:A0:C7:54:26:BA:97:FF:87:C8:EA:F0:5F:55:D9:9A:C9:09:10
            X509v3 Basic Constraints: 
                CA:FALSE
            X509v3 Key Usage: 
                Digital Signature, Key Encipherment
            X509v3 Extended Key Usage: 
                TLS Web Server Authentication
            X509v3 Subject Alternative Name: 
                DNS:index-suche.unixuser.intern, DNS:index-suche
            Authority Information Access: 
                CA Issuers - URI:http://unixuser.intern-sub-CA.crt
            X509v3 CRL Distribution Points: 
                Full Name:
                  URI:http://unixuser.intern-sub-CA.crl
            X509v3 Authority Key Identifier: 
                32:46:2C:E7:C6:52:EB:00:FF:EB:03:94:F8:F1:B1:E1:EC:CB:D9:D4
    Signature Algorithm: sha256WithRSAEncryption
    Signature Value:
        63:21:bc:7d:80:b0:97:63:9b:04:01:e1:df:80:b4:1b:c0:30:
        40:b2:6a:41:5c:40:a4:00:01:c4:e8:87:1d:e5:84:05:c5:6a:
        ee:17:24:29:c4:e6:79:9c:f4:85:48:ad:e5:42:db:8c:7e:13:
        78:5f:46:2e:56:e7:8a:74:72:a5:78:03:ce:1e:cf:42:02:75:
        9b:0e:05:dd:a4:ac:78:ad:7d:5b:34:d8:83:9d:a4:dd:58:46:
        e7:a8:c4:40:31:f3:34:d3:60:21:54:47:69:fe:46:ee:02:0b:
        33:7b:27:02:0e:d7:59:6e:c7:13:11:a2:f8:f5:08:7d:77:18:
        96:69:db:f0:eb:b5:d1:1a:0c:b5:97:09:a8:08:a6:b7:d1:4c:
        09:85:1e:93:af:b2:f0:20:79:86:50:22:57:fa:c8:2a:4c:7d:
        08:66:bf:f1:28:07:74:d3:eb:94:95:ff:be:ae:a8:4b:77:12:
        57:fe:7a:60:fe:3c:4b:fb:79:4e:af:88:e6:c4:2a:6a:3d:19:
        1a:f5:af:3f:e0:1c:8b:f8:ec:9d:a6:5a:1e:11:a1:83:33:d9:
        30:53:16:39:b5:1c:54:bf:08:d2:e4:6e:dc:c5:16:9b:c3:8f:
        96:18:c4:19:2d:10:59:81:9c:c4:a5:7c:7c:12:9c:ce:81:be:
        6d:86:14:86:0e:06:de:e1:cb:4c:55:9c:cd:28:04:98:e8:ed:
        57:4e:6c:8e:27:dc:69:a1:82:b2:9d:51:e7:58:72:c4:a0:bc:
        03:83:1a:3b:56:55:4e:a5:0d:f4:56:ed:78:7a:f7:10:2d:08:
        fe:9c:4c:f6:6d:e0:32:70:9c:49:11:7f:17:59:47:44:16:97:
        13:4c:e7:c4:3f:70:47:6b:69:98:bc:07:6b:1f:7c:49:f3:87:
        68:7b:c4:da:44:88:42:02:d6:88:95:cb:d9:7a:10:28:24:39:
        d5:ad:c7:1c:71:00:5f:aa:83:8a:7c:7e:c1:67:4b:d9:0d:8a:
        06:10:72:c0:d2:c6:34:ce:5b:1f:02:45:ea:12:29:e9:c4:2a:
        cf:a2:96:9c:b7:f5:d8:e1:95:fa:e5:7d:07:6e:8f:50:b8:e7:
        b2:8a:03:03:7d:93:e3:aa:20:12:ed:9a:09:dd:c1:28:31:b4:
        20:a5:63:c8:e9:b1:d1:a2:23:65:56:c4:4f:a0:12:58:22:24:
        93:1a:7d:0e:19:6c:6d:cc:59:f7:73:aa:22:70:fc:22:93:ef:
        e2:ac:c7:67:e2:bf:85:c0:26:43:33:bd:02:e2:3d:84:74:15:
        aa:a1:4e:17:8d:7f:25:5c:06:a7:3f:52:89:82:84:60:ff:57:
        59:5e:7c:53:88:47:91:13
-----BEGIN CERTIFICATE-----
MIIFkjCCA3qgAwIBAgICECMwDQYJKoZIhvcNAQELBQAwgZkxCzAJBgNVBAYTAkRF
MQwwCgYDVQQIDANOUlcxEzARBgNVBAcMCkxhbmdlbmZlbGQxFDASBgNVBAoMC3Vu
aXh1c2VyLmRlMQswCQYDVQQLDAJpdDEfMB0GA1UEAwwWdW5peHVzZXIuaW50ZXJu
LXN1Yi1DQTEjMCEGCSqGSIb3DQEJARYUdGF1bWVpc3RlckBnbWFpbC5jb20wHhcN
MjUxMjEzMTMwMjAwWhcNMjcxMjEzMTMwMjAwWjBhMQswCQYDVQQGEwJERTEMMAoG
A1UECAwDTlJXMREwDwYDVQQKDAhVbml4dXNlcjELMAkGA1UECwwCSVQxJDAiBgNV
BAMMG2luZGV4LXN1Y2hlLnVuaXh1c2VyLmludGVybjCCASIwDQYJKoZIhvcNAQEB
BQADggEPADCCAQoCggEBAJc4Qjj0zIbeErJxdP+0f67I9VUbB+iZmGmpTr4IiN1k
b7LQjR4zG/dImIN7Za9hnUAhss0Dn+0KmdUPgGeSwVLqXQ32V8s2eqIgtbyNBdpy
uj61kXF0eW3nW62JKEEIbB23eH/buVZ9kHUqgvAgJ7L5RlC6al7ngvh/Ws8zSmXr
2WLkkJw6u88riIoz3YoF2fvn3o68SLoU3m1hZP6zO73voCFA7ZsukBalwqQDgZ3/
Gr5QMDJYZiCMQF7yTA+uMYj9DYPJE7WIwwPjsDqnc69b39G9TDHBzeSZcJ3byPuF
q23Bh1PrcJCOjt+jFvKae2YJyCLij+hSyTU7nSI5j7MCAwEAAaOCARkwggEVMB0G
A1UdDgQWBBSZgaDHVCa6l/+HyOrwX1XZmskJEDAJBgNVHRMEAjAAMAsGA1UdDwQE
AwIFoDATBgNVHSUEDDAKBggrBgEFBQcDATAzBgNVHREELDAqghtpbmRleC1zdWNo
ZS51bml4dXNlci5pbnRlcm6CC2luZGV4LXN1Y2hlMD0GCCsGAQUFBwEBBDEwLzAt
BggrBgEFBQcwAoYhaHR0cDovL3VuaXh1c2VyLmludGVybi1zdWItQ0EuY3J0MDIG
A1UdHwQrMCkwJ6AloCOGIWh0dHA6Ly91bml4dXNlci5pbnRlcm4tc3ViLUNBLmNy
bDAfBgNVHSMEGDAWgBQyRiznxlLrAP/rA5T48bHh7MvZ1DANBgkqhkiG9w0BAQsF
AAOCAgEAYyG8fYCwl2ObBAHh34C0G8AwQLJqQVxApAABxOiHHeWEBcVq7hckKcTm
eZz0hUit5ULbjH4TeF9GLlbninRypXgDzh7PQgJ1mw4F3aSseK19WzTYg52k3VhG
56jEQDHzNNNgIVRHaf5G7gILM3snAg7XWW7HExGi+PUIfXcYlmnb8Ou10RoMtZcJ
qAimt9FMCYUek6+y8CB5hlAiV/rIKkx9CGa/8SgHdNPrlJX/vq6oS3cSV/56YP48
S/t5Tq+I5sQqaj0ZGvWvP+Aci/jsnaZaHhGhgzPZMFMWObUcVL8I0uRu3MUWm8OP
lhjEGS0QWYGcxKV8fBKczoG+bYYUhg4G3uHLTFWczSgEmOjtV05sjifcaaGCsp1R
51hyxKC8A4MaO1ZVTqUN9FbteHr3EC0I/pxM9m3gMnCcSRF/F1lHRBaXE0znxD9w
R2tpmLwHax98SfOHaHvE2kSIQgLWiJXL2XoQKCQ51a3HHHEAX6qDinx+wWdL2Q2K
BhBywNLGNM5bHwJF6hIp6cQqz6KWnLf12OGV+uV9B26PULjnsooDA32T46ogEu2a
Cd3BKDG0IKVjyOmx0aIjZVbET6ASWCIkkxp9DhlsbcxZ93OqInD8IpPv4qzHZ+K/
hcAmQzO9AuI9hHQVqqFOF41/JVwGpz9SiYKEYP9XWV58U4hHkRM=
-----END CERTIFICATE-----
-----BEGIN CERTIFICATE-----
MIIGJjCCBA6gAwIBAgIUUasocdCGp9ZquU6OwZ7CRluVkeIwDQYJKoZIhvcNAQEL
BQAwgZoxCzAJBgNVBAYTAkRFMQwwCgYDVQQIDANOUlcxEzARBgNVBAcMCkxhbmdl
bmZlbGQxFDASBgNVBAoMC3VuaXh1c2VyLmRlMQswCQYDVQQLDAJpdDEgMB4GA1UE
AwwXdW5peHVzZXIuaW50ZXJuLXJvb3QtQ0ExIzAhBgkqhkiG9w0BCQEWFHRhdW1l
aXN0ZXJAZ21haWwuY29tMB4XDTI0MDMwMzE4MzY0N1oXDTM0MDMwMTE4MzY0N1ow
gZkxCzAJBgNVBAYTAkRFMQwwCgYDVQQIDANOUlcxEzARBgNVBAcMCkxhbmdlbmZl
bGQxFDASBgNVBAoMC3VuaXh1c2VyLmRlMQswCQYDVQQLDAJpdDEfMB0GA1UEAwwW
dW5peHVzZXIuaW50ZXJuLXN1Yi1DQTEjMCEGCSqGSIb3DQEJARYUdGF1bWVpc3Rl
ckBnbWFpbC5jb20wggIiMA0GCSqGSIb3DQEBAQUAA4ICDwAwggIKAoICAQCkTLR0
/QwMcBrTorlWFwJBgOFAn3GTiDpOnkbWEj4woPtVpzDkKO/fhBo1GZMnvEdNweb+
+EtZjNcp7GiEembmKvmIs/z7eo0r+VHwY0oFA6L/VE+/iJV8dB24XrzuwZKd/JcJ
QoErnF3CclDlxmOAhuL5tsLyQ2IFkIZ8skdwAjMb/mLcjf7GO9CJuGUPL0KeTGg6
uo+Y+W/qBael+ku5eZ8Jp2McCXWsZdSo2Wm1L46AUUwISQwcP1lNKjxubM12/iSn
59iMnI7bx3Q743Q8kXjVN6bO3LR4yydZ3YEvnr1fHu+wZR72PjxmXm/7XXMcmZ0X
UEpZB/XkfNnaExmMwHdiC3K9NWY+JjkLRtYN6mtSv6gPA6LRb/+OJgKOKOLXRAGL
+B/IUwrGD6QUvvzU6X1CRmgXUvcASD4HQ4SKL1I44Hwe94/bj0AetrGsiwEFfg1v
N+q0GxdIG2jbRUUyCIQjytpukdTngFrfKAQBAaj5laO7v0IEXSgOAC1WGGwsi906
BWM3EIvTwhO16CRom2Ni7x1YrS1iL782vPiX6UADRXXhATHoPOng/+ey/y+5NjOS
Uwawo3b+NmfDWN2PcXmpMAe7OA0ZR6VUKqnw87qQJkMHt+a7UFDrxgb7jIwxdqdH
hlhMA/xOF17eXp9iO0J4tfSm2eqz/Jy55QyZ8wIDAQABo2MwYTAdBgNVHQ4EFgQU
MkYs58ZS6wD/6wOU+PGx4ezL2dQwDwYDVR0TAQH/BAUwAwEB/zAOBgNVHQ8BAf8E
BAMCAYYwHwYDVR0jBBgwFoAUmzYU4jh9QnQRIWynV5rWdwpkya4wDQYJKoZIhvcN
AQELBQADggIBAMIX6vNOc7w5IhvojOz8SzCYTG4begTuBlmVVC6nZAf1k+32bcvk
aOEWtR11S8RNlKckwYwHGS/ObzlVKpPcr9XvKlTWAcCYyuSGPpsVsnpktm2U9Dy6
HRsQXEYP6tq8ptz6lUP3UNjoXr+2ArhjP+gPnkPV6I4SAzjjQzBDo9DLiEk8gA/W
kFPD6WIbhOzLq8RsSGlHKqQjo9OwohsDmRFk96mtENRKBYbGP7uZYx3Ml0AYpgrx
W/x1m83kb1SfqhlsDxHgXeiwPJSHA4V0eVyk9olI9EepVGHVNDdR1fLVGs3LLZAo
frRoJ9O1bVsGktC+zXS9XdU9kkKdcaE0kzM/CVBM3dwgEI4sDOZgCqWKTcMjhJSx
6myQIYwCznUX1bjGY1jAH6/2OPfgolNXj3MbXr1nkSd3GVZgGyMnpLyEqDFHpG1Q
8TItEQrMjWXXvLSui4gaS3sMNZupz2OE6vtP1cESQKZWEB4WCkPzrl6Vup8zh0ul
nodQDKP0a33bMUpgfQD1AI2cERsPgHU7zQuhJsM1rR46nNRBgzkiupXq+vKOtzDX
QGCz+IAEqfOim1RZxE6WCEFPvLWTwaDw6TXuE+YWosICsCpFlHFWCNilIGhX/D5E
H3CGK0baZSK080aQ4MZCod6VkLXJTZR5m9EeA1FAdlRko8L8qa828oIK
-----END CERTIFICATE-----
-----BEGIN CERTIFICATE-----
MIIGBjCCA+6gAwIBAgIUVnODdHgoj4tZwzRQkR4R+2xdIVwwDQYJKoZIhvcNAQEL
BQAwgZoxCzAJBgNVBAYTAkRFMQwwCgYDVQQIDANOUlcxEzARBgNVBAcMCkxhbmdl
bmZlbGQxFDASBgNVBAoMC3VuaXh1c2VyLmRlMQswCQYDVQQLDAJpdDEgMB4GA1UE
AwwXdW5peHVzZXIuaW50ZXJuLXJvb3QtQ0ExIzAhBgkqhkiG9w0BCQEWFHRhdW1l
aXN0ZXJAZ21haWwuY29tMB4XDTI0MDMwMzE4MzIwN1oXDTM0MDMwMTE4MzIwN1ow
gZoxCzAJBgNVBAYTAkRFMQwwCgYDVQQIDANOUlcxEzARBgNVBAcMCkxhbmdlbmZl
bGQxFDASBgNVBAoMC3VuaXh1c2VyLmRlMQswCQYDVQQLDAJpdDEgMB4GA1UEAwwX
dW5peHVzZXIuaW50ZXJuLXJvb3QtQ0ExIzAhBgkqhkiG9w0BCQEWFHRhdW1laXN0
ZXJAZ21haWwuY29tMIICIjANBgkqhkiG9w0BAQEFAAOCAg8AMIICCgKCAgEA2GSw
xCReVWdWimhlRl3tBuMpRRmjLqEsgGUD9H6ppJheNHdsBxjpHAnJ3sQ+LTpVVp7t
2ByYleQ5E7PuTZ3mI1qeNteOEy3AnRpI3sz0DTWsPyczy3AdVuM7HAwauutZIq/I
Qnzjn6oeuow54W0vnJjPXXzIqKTJUwkz3cR51/J32RlbgwV4676PJrWnAqU6w+uk
zLR7KvXHTpNPs21/QmwWddIfeIVXFmQUuD1Hd452Np8h+V7aB+iYXamx2Lcnx50C
sN77DpIIxDJYBVgjWtEAIJdt551aLWOPQettwswDmudlzyLm0HfBq8OUaSaXSIsq
t5BDHflnJXMmSqcbw3t/FQNLvon/Fb3UTftK9eqAIk/F55YQtcCh/0cxln+eHhxE
PGV6I3z5Z0iOYCbF9cOLO58EeXMpiz1jIjQYl/x/HQf04i9naI0mIrii9+ORTOOl
Olb3r/QqFnBaKWpCHH91tJkmYzohteHVS+V9zNIVV015P8Du3hfSNznLXRswm/hu
F1+d9fTmXNieCeg05H+NzWKAw0wy6LQ/Nyer+Mec7v46Iph4YuKbqepmmCHNWJ6K
HQBLw+0W5HwlWKUNUtOI1BgL5NxoynH0ZmyXhPLlJXcipdx3E+p1f8Rpl02x+Aw8
NZc9yOe8Yi5V0o3yfrw4Pif1nXU2DBt5FFSwDnMCAwEAAaNCMEAwHQYDVR0OBBYE
FJs2FOI4fUJ0ESFsp1ea1ncKZMmuMA8GA1UdEwEB/wQFMAMBAf8wDgYDVR0PAQH/
BAQDAgGGMA0GCSqGSIb3DQEBCwUAA4ICAQCzHtLDP33V/r9uixQ1Fa6Dw1AtEFqN
uZwHu0cd3RGJpS5CqS/ntMAgBYjcnHK/83LL3gAAoWUvr/SLdic4TqKxAZughmA4
2jANHxZUfvlF40pv5Lr4DKmcj94utjXHJA/vKzGMxaFzMQep/c6jWcY416NLIYKO
PfaSRHveq6LSFKkYUFnjSzEAly8NTAx2W7UiezV7I3RI6MOdn3QZ3mcDSEgLZ+e/
hDNvyHUarMlLoWc7rHjX5n9rV7qLvJUSY+gj/Dnn2ye0KQVOvmZ2OtqTRuv2SA07
SL07K55gMTwT/fpIQXS4GIpKysviiOnoQoN+zcbJfvbDcMzv3mUXkSCZEVyq+iiT
yzBYQDffKbHM6r5aTHJ1+aKLsAgs252EFJJ4es8NZ0raofxJbK0luVpyz8dm7AN1
HPNVzX83rUb0NIlMRyT4vSZ4XrrhThAJ1ossAI4JrnyP53xjeYUXlzGM7DZv7Ot9
kaWxgtREFnZU8ZXHEOpPebXeajkuuk7yHf2bg3SUHoa0HIXEF7oJT4LRt69CCRJk
ZX4VpLzheBeTvwmopHgqrIk01WdWOJt+2aRtVzhpOk4+7KPPagUuwiCrGX3lxfnH
o2blbjrUvgGquUyMzW/2CJyN3c1mjLoukzR/of4+/wzefPtkO8W5egoznSZIUIS1
Xs//qkAf50Swjg==
-----END CERTIFICATE-----
